(lp0
I2560
aI2561
aI2563
aI2564
aI2055
aI2056
aI2058
aI2059
aI2060
aI2573
aI2574
aI2063
aI2064
aI2578
aI2579
aI2069
aI2393
aI2584
aI2073
aI2074
aI2077
aI2078
aI2591
aI2593
aI2083
aI2084
aI2086
aI2088
aI2601
aI2090
aI2311
aI2604
aI2093
aI2606
aI2095
aI2098
aI2611
aI2613
aI2103
aI2104
aI2619
aI2108
aI2109
aI2623
aI2112
aI2625
aI2115
aI2630
aI2631
aI2121
aI2122
aI2123
aI2124
aI2638
aI2131
aI2646
aI2136
aI2575
aI2140
aI2142
aI2655
aI2576
aI2147
aI2150
aI2154
aI2067
aI2164
aI2165
aI1983
aI2172
aI2179
aI2184
aI2188
aI2190
aI2200
aI2201
aI2586
aI2206
aI2210
aI2212
aI2213
aI1966
aI2216
aI2218
aI2220
aI2229
aI2233
aI2234
aI2237
aI2240
aI2244
aI2253
aI2257
aI2258
aI2261
aI2262
aI2266
aI2271
aI2275
aI2276
aI2278
aI2037
aI2429
aI2288
aI2600
aI2139
aI1918
aI2299
aI2300
aI2602
aI2303
aI2477
aI2306
aI2307
aI2308
aI2309
aI2433
aI2092
aI2323
aI2324
aI2326
aI2521
aI2329
aI2331
aI2334
aI2339
aI2340
aI2347
aI2348
aI2350
aI2352
aI2353
aI2354
aI2356
aI2359
aI2363
aI2369
aI2370
aI2374
aI2376
aI2615
aI2381
aI2383
aI2386
aI2387
aI2391
aI2392
aI2020
aI2395
aI2654
aI2404
aI2407
aI2408
aI2409
aI2410
aI2414
aI2418
aI2423
aI2427
aI2428
aI1917
aI2430
aI2624
aI1925
aI1929
aI2442
aI2443
aI2446
aI2449
aI1938
aI2030
aI1942
aI1943
aI1946
aI2287
aI2460
aI2462
aI2464
aI1953
aI2467
aI2468
aI2118
aI2545
aI1962
aI1963
aI2476
aI2290
aI2478
aI2482
aI1971
aI2484
aI2485
aI2489
aI1979
aI2492
aI2495
aI1984
aI1985
aI1986
aI2499
aI2500
aI1989
aI2504
aI1993
aI2506
aI2507
aI1997
aI2552
aI2005
aI2520
aI2607
aI2590
aI2524
aI2526
aI2469
aI2019
aI2532
aI2021
aI2454
aI2536
aI2044
aI2539
aI2542
aI2543
aI2033
aI2546
aI2549
aI2550
aI2551
aI2040
aI2553
aI2554
aI2043
aI2556
aI2045
aI2046
aI2559
a.